target datalayout = "e-m:e-p270:32:32-p271:32:32-p272:64:64-i64:64-i128:128-f80:128-n8:16:32:64-S128"
target triple = "x86_64-pc-linux-gnu"

%struct.H5SM_index_header_t = type { i32, i64, i64, i64, i64, i32, i64, i64, i64 }
%struct.H5SM_list_cache_ud_t = type { ptr, ptr }

@H5SM_init_g = external global i8, align 1
@H5_libterm_g = external global i8, align 1

; Function Attrs: nounwind uwtable
define internal i32 @H5SM__cache_list_get_initial_load_size(ptr noundef %0, ptr noundef %1) #0 {
  %3 = alloca ptr, align 8
  %4 = alloca ptr, align 8
  %5 = alloca ptr, align 8
  store ptr %0, ptr %3, align 8, !tbaa !3
  store ptr %1, ptr %4, align 8, !tbaa !7
  call void @llvm.lifetime.start.p0(i64 8, ptr %5) #7
  %6 = load ptr, ptr %3, align 8, !tbaa !3
  store ptr %6, ptr %5, align 8, !tbaa !53
  %7 = load i8, ptr @H5SM_init_g, align 1, !tbaa !11, !range !13, !noundef !14
  %8 = trunc i8 %7 to i1
  br i1 %8, label %13, label %9

9:                                                ; preds = %2
  %10 = load i8, ptr @H5_libterm_g, align 1, !tbaa !11, !range !13, !noundef !14
  %11 = trunc i8 %10 to i1
  %12 = xor i1 %11, true
  br label %13

13:                                               ; preds = %9, %2
  %14 = phi i1 [ true, %2 ], [ %12, %9 ]
  %15 = xor i1 %14, true
  %16 = xor i1 %15, true
  %17 = zext i1 %16 to i32
  %18 = sext i32 %17 to i64
  %19 = call i64 @llvm.expect.i64(i64 %18, i64 1)
  %20 = icmp ne i64 %19, 0
  br i1 %20, label %21, label %28

21:                                               ; preds = %13
  %22 = load ptr, ptr %5, align 8, !tbaa !53
  %23 = getelementptr inbounds nuw %struct.H5SM_list_cache_ud_t, ptr %22, i32 0, i32 1
  %24 = load ptr, ptr %23, align 8, !tbaa !55
  %25 = getelementptr inbounds nuw %struct.H5SM_index_header_t, ptr %24, i32 0, i32 8
  %26 = load i64, ptr %25, align 8, !tbaa !47
  %27 = load ptr, ptr %4, align 8, !tbaa !7
  store i64 %26, ptr %27, align 8, !tbaa !18
  br label %28

28:                                               ; preds = %21, %13
  call void @llvm.lifetime.end.p0(i64 8, ptr %5) #7
  ret i32 0
}